; Function Attrs: nounwind uwtable
define dso_local i32 @job_requeue(i32 noundef %0, i32 noundef %1, ptr noundef %2, i1 noundef zeroext %3, i32 noundef %4) local_unnamed_addr #0 {
  %6 = load ptr, ptr @job_hash, align 8
  %7 = load i32, ptr @hash_table_size, align 4
  %8 = urem i32 %1, %7
  %9 = zext i32 %8 to i64
  %10 = getelementptr inbounds nuw ptr, ptr %6, i64 %9
  %.07.i = load ptr, ptr %10, align 8
  %.not8.i = icmp eq ptr %.07.i, null
  br i1 %.not8.i, label %find_job_record.exit.thread, label %.lr.ph.i

.lr.ph.i:                                         ; preds = %5, %14
  %.09.i = phi ptr [ %.0.i, %14 ], [ %.07.i, %5 ]
  %11 = getelementptr inbounds nuw i8, ptr %.09.i, i64 392
  %12 = load i32, ptr %11, align 8
  %13 = icmp eq i32 %12, %1
  br i1 %13, label %find_job_record.exit, label %14

14:                                               ; preds = %.lr.ph.i
  %15 = getelementptr inbounds nuw i8, ptr %.09.i, i64 408
  %.0.i = load ptr, ptr %15, align 8
  %.not.i = icmp eq ptr %.0.i, null
  br i1 %.not.i, label %find_job_record.exit.thread, label %.lr.ph.i, !llvm.loop !14

find_job_record.exit:                             ; preds = %.lr.ph.i
  %16 = tail call fastcc i32 @_job_requeue(i32 noundef %0, ptr noundef %.09.i, i1 noundef zeroext %3, i32 noundef %4)
  br label %find_job_record.exit.thread

find_job_record.exit.thread:                      ; preds = %14, %5, %find_job_record.exit
  %.0 = phi i32 [ %16, %find_job_record.exit ], [ 2017, %5 ], [ 2017, %14 ]
  %.not = icmp eq ptr %2, null
  br i1 %.not, label %19, label %17

17:                                               ; preds = %find_job_record.exit.thread
  %18 = tail call i32 @slurm_send_rc_msg(ptr noundef nonnull %2, i32 noundef %.0) #27
  br label %19

19:                                               ; preds = %17, %find_job_record.exit.thread
  ret i32 %.0
}